target datalayout = "e-m:e-p270:32:32-p271:32:32-p272:64:64-i64:64-i128:128-f80:128-n8:16:32:64-S128"
target triple = "x86_64-pc-linux-gnu"

%struct.cl_fmap = type { ptr, ptr, ptr, i64, i64, i64, i64, i8, i8, i8, i64, i64, i64, i64, ptr, ptr, ptr, ptr, ptr, ptr, ptr, i8, [16 x i8], i8, [20 x i8], i8, [32 x i8], ptr, ptr }

@.str.9 = private unnamed_addr constant [29 x i8] c"fmap: map allocation failed\0A\00", align 1
@.str.10 = private unnamed_addr constant [36 x i8] c"fmap: failed to duplicate map name\0A\00", align 1

; Function Attrs: nounwind uwtable
define internal i64 @fmap_align_items(i64 noundef %0, i64 noundef %1) #0 {
  %3 = alloca i64, align 8
  %4 = alloca i64, align 8
  store i64 %0, ptr %3, align 8
  store i64 %1, ptr %4, align 8
  %5 = load i64, ptr %3, align 8
  %6 = load i64, ptr %4, align 8
  %7 = udiv i64 %5, %6
  %8 = load i64, ptr %3, align 8
  %9 = load i64, ptr %4, align 8
  %10 = urem i64 %8, %9
  %11 = icmp ne i64 %10, 0
  %12 = zext i1 %11 to i32
  %13 = sext i32 %12 to i64
  %14 = add i64 %7, %13
  ret i64 %14
}

; Function Attrs: nounwind uwtable
define internal i32 @cli_getpagesize() #0 {
  %1 = call i64 @sysconf(i32 noundef 30) #8
  %2 = trunc i64 %1 to i32
  ret i32 %2
}

; Function Attrs: nounwind uwtable
define ptr @fmap_open_memory(ptr noundef %0, i64 noundef %1, ptr noundef %2) #0 {
  %4 = alloca ptr, align 8
  %5 = alloca i64, align 8
  %6 = alloca ptr, align 8
  %7 = alloca i32, align 4
  %8 = alloca i32, align 4
  %9 = alloca ptr, align 8
  store ptr %0, ptr %4, align 8
  store i64 %1, ptr %5, align 8
  store ptr %2, ptr %6, align 8
  store i32 34, ptr %7, align 4
  %10 = call i32 @cli_getpagesize()
  store i32 %10, ptr %8, align 4
  %11 = call noalias ptr @calloc(i64 noundef 1, i64 noundef 240) #9
  store ptr %11, ptr %9, align 8
  %12 = load ptr, ptr %9, align 8
  %13 = icmp ne ptr %12, null
  br i1 %13, label %15, label %14

14:                                               ; preds = %3
  call void (ptr, ...) @cli_warnmsg(ptr noundef @.str.9)
  br label %59

15:                                               ; preds = %3
  %16 = load ptr, ptr %4, align 8
  %17 = load ptr, ptr %9, align 8
  %18 = getelementptr inbounds %struct.cl_fmap, ptr %17, i32 0, i32 2
  store ptr %16, ptr %18, align 8
  %19 = load i64, ptr %5, align 8
  %20 = load ptr, ptr %9, align 8
  %21 = getelementptr inbounds %struct.cl_fmap, ptr %20, i32 0, i32 13
  store i64 %19, ptr %21, align 8
  %22 = load i64, ptr %5, align 8
  %23 = load ptr, ptr %9, align 8
  %24 = getelementptr inbounds %struct.cl_fmap, ptr %23, i32 0, i32 12
  store i64 %22, ptr %24, align 8
  %25 = load i32, ptr %8, align 4
  %26 = sext i32 %25 to i64
  %27 = load ptr, ptr %9, align 8
  %28 = getelementptr inbounds %struct.cl_fmap, ptr %27, i32 0, i32 5
  store i64 %26, ptr %28, align 8
  %29 = load i64, ptr %5, align 8
  %30 = load i32, ptr %8, align 4
  %31 = sext i32 %30 to i64
  %32 = call i64 @fmap_align_items(i64 noundef %29, i64 noundef %31)
  %33 = load ptr, ptr %9, align 8
  %34 = getelementptr inbounds %struct.cl_fmap, ptr %33, i32 0, i32 4
  store i64 %32, ptr %34, align 8
  %35 = load ptr, ptr %9, align 8
  %36 = getelementptr inbounds %struct.cl_fmap, ptr %35, i32 0, i32 14
  store ptr @unmap_malloc, ptr %36, align 8
  %37 = load ptr, ptr %9, align 8
  %38 = getelementptr inbounds %struct.cl_fmap, ptr %37, i32 0, i32 15
  store ptr @mem_need, ptr %38, align 8
  %39 = load ptr, ptr %9, align 8
  %40 = getelementptr inbounds %struct.cl_fmap, ptr %39, i32 0, i32 16
  store ptr @mem_need_offstr, ptr %40, align 8
  %41 = load ptr, ptr %9, align 8
  %42 = getelementptr inbounds %struct.cl_fmap, ptr %41, i32 0, i32 17
  store ptr @mem_gets, ptr %42, align 8
  %43 = load ptr, ptr %9, align 8
  %44 = getelementptr inbounds %struct.cl_fmap, ptr %43, i32 0, i32 18
  store ptr @mem_unneed_off, ptr %44, align 8
  %45 = load ptr, ptr %6, align 8
  %46 = icmp ne ptr null, %45
  br i1 %46, label %47, label %58

47:                                               ; preds = %15
  %48 = load ptr, ptr %6, align 8
  %49 = call ptr @cli_safer_strdup(ptr noundef %48)
  %50 = load ptr, ptr %9, align 8
  %51 = getelementptr inbounds %struct.cl_fmap, ptr %50, i32 0, i32 28
  store ptr %49, ptr %51, align 8
  %52 = load ptr, ptr %9, align 8
  %53 = getelementptr inbounds %struct.cl_fmap, ptr %52, i32 0, i32 28
  %54 = load ptr, ptr %53, align 8
  %55 = icmp eq ptr null, %54
  br i1 %55, label %56, label %57

56:                                               ; preds = %47
  call void (ptr, ...) @cli_warnmsg(ptr noundef @.str.10)
  br label %59

57:                                               ; preds = %47
  br label %58

58:                                               ; preds = %57, %15
  store i32 0, ptr %7, align 4
  br label %59

59:                                               ; preds = %58, %56, %14
  %60 = load i32, ptr %7, align 4
  %61 = icmp ne i32 0, %60
  br i1 %61, label %62, label %77

62:                                               ; preds = %59
  %63 = load ptr, ptr %9, align 8
  %64 = icmp ne ptr null, %63
  br i1 %64, label %65, label %76

65:                                               ; preds = %62
  %66 = load ptr, ptr %9, align 8
  %67 = getelementptr inbounds %struct.cl_fmap, ptr %66, i32 0, i32 28
  %68 = load ptr, ptr %67, align 8
  %69 = icmp ne ptr null, %68
  br i1 %69, label %70, label %74

70:                                               ; preds = %65
  %71 = load ptr, ptr %9, align 8
  %72 = getelementptr inbounds %struct.cl_fmap, ptr %71, i32 0, i32 28
  %73 = load ptr, ptr %72, align 8
  call void @free(ptr noundef %73) #8
  br label %74

74:                                               ; preds = %70, %65
  %75 = load ptr, ptr %9, align 8
  call void @free(ptr noundef %75) #8
  store ptr null, ptr %9, align 8
  br label %76

76:                                               ; preds = %74, %62
  br label %77

77:                                               ; preds = %76, %59
  %78 = load ptr, ptr %9, align 8
  ret ptr %78
}