; Function Attrs: nounwind uwtable
define noalias noundef ptr @fmap_open_memory(ptr noundef %0, i64 noundef %1, ptr noundef %2) local_unnamed_addr #0 {
  %4 = tail call i64 @sysconf(i32 noundef 30) #18
  %5 = tail call noalias dereferenceable_or_null(240) ptr @calloc(i64 noundef 1, i64 noundef 240) #19
  %.not33 = icmp eq ptr %5, null
  br i1 %.not33, label %6, label %7

6:                                                ; preds = %3
  tail call void (ptr, ...) @cli_warnmsg(ptr noundef nonnull @.str.9) #18
  br label %.thread

7:                                                ; preds = %3
  %8 = getelementptr inbounds i8, ptr %5, i64 16
  store ptr %0, ptr %8, align 8
  %9 = getelementptr inbounds i8, ptr %5, i64 88
  store i64 %1, ptr %9, align 8
  %10 = getelementptr inbounds i8, ptr %5, i64 80
  store i64 %1, ptr %10, align 8
  %sext = shl i64 %4, 32
  %11 = ashr exact i64 %sext, 32
  %12 = getelementptr inbounds i8, ptr %5, i64 40
  store i64 %11, ptr %12, align 8
  %13 = udiv i64 %1, %11
  %14 = urem i64 %1, %11
  %15 = icmp ne i64 %14, 0
  %16 = zext i1 %15 to i64
  %17 = add i64 %13, %16
  %18 = getelementptr inbounds i8, ptr %5, i64 32
  store i64 %17, ptr %18, align 8
  %19 = getelementptr inbounds i8, ptr %5, i64 96
  store ptr @unmap_malloc, ptr %19, align 8
  %20 = getelementptr inbounds i8, ptr %5, i64 104
  store ptr @mem_need, ptr %20, align 8
  %21 = getelementptr inbounds i8, ptr %5, i64 112
  store ptr @mem_need_offstr, ptr %21, align 8
  %22 = getelementptr inbounds i8, ptr %5, i64 120
  store ptr @mem_gets, ptr %22, align 8
  %23 = getelementptr inbounds i8, ptr %5, i64 128
  store ptr @mem_unneed_off, ptr %23, align 8
  %.not = icmp eq ptr %2, null
  br i1 %.not, label %.thread, label %24

24:                                               ; preds = %7
  %25 = tail call ptr @cli_safer_strdup(ptr noundef nonnull %2) #18
  %26 = getelementptr inbounds i8, ptr %5, i64 232
  store ptr %25, ptr %26, align 8
  %27 = icmp eq ptr %25, null
  br i1 %27, label %28, label %.thread

28:                                               ; preds = %24
  tail call void (ptr, ...) @cli_warnmsg(ptr noundef nonnull @.str.10) #18
  tail call void @free(ptr noundef nonnull %5) #18
  br label %.thread

.thread:                                          ; preds = %6, %7, %24, %28
  %.0 = phi ptr [ null, %28 ], [ %5, %24 ], [ %5, %7 ], [ null, %6 ]
  ret ptr %.0
}